target datalayout = "e-m:e-p270:32:32-p271:32:32-p272:64:64-i64:64-i128:128-f80:128-n8:16:32:64-S128"
target triple = "x86_64-pc-linux-gnu"

%class.G1HeapRegion = type { ptr, ptr, ptr, ptr, ptr, ptr, i32, %class.G1HeapRegionType, ptr, i32, ptr, ptr, ptr, i64, i32, ptr, i32, i32, i64 }
%class.G1HeapRegionType = type { i32 }
%class.G1AllocRegion = type <{ ptr, ptr, i32, [4 x i8], ptr, i32, [4 x i8] }>

@.str.5 = private unnamed_addr constant [29 x i8] c"attempting region allocation\00", align 1
@.str.6 = private unnamed_addr constant [29 x i8] c"region allocation successful\00", align 1
@.str.7 = private unnamed_addr constant [25 x i8] c"region allocation failed\00", align 1
@.str.12 = private unnamed_addr constant [7 x i8] c"update\00", align 1
@.str.13 = private unnamed_addr constant [8 x i8] c"updated\00", align 1

; Function Attrs: mustprogress nounwind uwtable
define linkonce_odr hidden noundef i64 @_Z13pointer_deltaPVKvS0_m(ptr noundef %0, ptr noundef %1, i64 noundef %2) #1 comdat {
  %4 = alloca ptr, align 8
  %5 = alloca ptr, align 8
  %6 = alloca i64, align 8
  store ptr %0, ptr %4, align 8
  store ptr %1, ptr %5, align 8
  store i64 %2, ptr %6, align 8
  %7 = load ptr, ptr %4, align 8
  %8 = ptrtoint ptr %7 to i64
  %9 = load ptr, ptr %5, align 8
  %10 = ptrtoint ptr %9 to i64
  %11 = sub i64 %8, %10
  %12 = load i64, ptr %6, align 8
  %13 = udiv i64 %11, %12
  ret i64 %13
}

; Function Attrs: mustprogress nounwind uwtable
define linkonce_odr hidden void @_ZN12G1HeapRegion7set_topEPP12HeapWordImpl(ptr noundef nonnull align 8 dereferenceable(136) %0, ptr noundef %1) #1 comdat align 2 {
  %3 = alloca ptr, align 8
  %4 = alloca ptr, align 8
  store ptr %0, ptr %3, align 8
  store ptr %1, ptr %4, align 8
  %5 = load ptr, ptr %3, align 8
  %6 = load ptr, ptr %4, align 8
  %7 = getelementptr inbounds %class.G1HeapRegion, ptr %5, i32 0, i32 2
  store volatile ptr %6, ptr %7, align 8
  ret void
}

; Function Attrs: mustprogress nounwind uwtable
define linkonce_odr hidden noundef i64 @_Z4MIN2ImET_S0_S0_(i64 noundef %0, i64 noundef %1) #1 comdat {
  %3 = alloca i64, align 8
  %4 = alloca i64, align 8
  store i64 %0, ptr %3, align 8
  store i64 %1, ptr %4, align 8
  %5 = load i64, ptr %3, align 8
  %6 = load i64, ptr %4, align 8
  %7 = icmp ult i64 %5, %6
  br i1 %7, label %8, label %10

8:                                                ; preds = %2
  %9 = load i64, ptr %3, align 8
  br label %12

10:                                               ; preds = %2
  %11 = load i64, ptr %4, align 8
  br label %12

12:                                               ; preds = %10, %8
  %13 = phi i64 [ %9, %8 ], [ %11, %10 ]
  ret i64 %13
}

; Function Attrs: mustprogress nounwind uwtable
define linkonce_odr hidden noundef i64 @_Z13pointer_deltaPKP12HeapWordImplS2_(ptr noundef %0, ptr noundef %1) #1 comdat {
  %3 = alloca ptr, align 8
  %4 = alloca ptr, align 8
  store ptr %0, ptr %3, align 8
  store ptr %1, ptr %4, align 8
  %5 = load ptr, ptr %3, align 8
  %6 = load ptr, ptr %4, align 8
  %7 = call noundef i64 @_Z13pointer_deltaPVKvS0_m(ptr noundef %5, ptr noundef %6, i64 noundef 8)
  ret i64 %7
}

; Function Attrs: mustprogress nounwind uwtable
define linkonce_odr hidden noundef ptr @_ZNK12G1HeapRegion3endEv(ptr noundef nonnull align 8 dereferenceable(136) %0) #1 comdat align 2 {
  %2 = alloca ptr, align 8
  store ptr %0, ptr %2, align 8
  %3 = load ptr, ptr %2, align 8
  %4 = getelementptr inbounds %class.G1HeapRegion, ptr %3, i32 0, i32 1
  %5 = load ptr, ptr %4, align 8
  ret ptr %5
}

; Function Attrs: mustprogress nounwind uwtable
define linkonce_odr hidden noundef ptr @_ZNK12G1HeapRegion3topEv(ptr noundef nonnull align 8 dereferenceable(136) %0) #1 comdat align 2 {
  %2 = alloca ptr, align 8
  store ptr %0, ptr %2, align 8
  %3 = load ptr, ptr %2, align 8
  %4 = getelementptr inbounds %class.G1HeapRegion, ptr %3, i32 0, i32 2
  %5 = load volatile ptr, ptr %4, align 8
  ret ptr %5
}

; Function Attrs: mustprogress nounwind uwtable
define internal void @_ZL16compiler_barrierv() #1 {
  call void asm sideeffect "", "~{memory},~{dirflag},~{fpsr},~{flags}"() #9, !srcloc !10
  ret void
}

; Function Attrs: mustprogress nounwind uwtable
define linkonce_odr hidden noundef ptr @_ZN12G1HeapRegion8allocateEmmPm(ptr noundef nonnull align 8 dereferenceable(136) %0, i64 noundef %1, i64 noundef %2, ptr noundef %3) #1 comdat align 2 {
  %5 = alloca ptr, align 8
  %6 = alloca ptr, align 8
  %7 = alloca i64, align 8
  %8 = alloca i64, align 8
  %9 = alloca ptr, align 8
  %10 = alloca ptr, align 8
  %11 = alloca i64, align 8
  %12 = alloca i64, align 8
  %13 = alloca ptr, align 8
  store ptr %0, ptr %6, align 8
  store i64 %1, ptr %7, align 8
  store i64 %2, ptr %8, align 8
  store ptr %3, ptr %9, align 8
  %14 = load ptr, ptr %6, align 8
  %15 = call noundef ptr @_ZNK12G1HeapRegion3topEv(ptr noundef nonnull align 8 dereferenceable(136) %14)
  store ptr %15, ptr %10, align 8
  %16 = call noundef ptr @_ZNK12G1HeapRegion3endEv(ptr noundef nonnull align 8 dereferenceable(136) %14)
  %17 = load ptr, ptr %10, align 8
  %18 = call noundef i64 @_Z13pointer_deltaPKP12HeapWordImplS2_(ptr noundef %16, ptr noundef %17)
  store i64 %18, ptr %11, align 8
  %19 = load i64, ptr %11, align 8
  %20 = load i64, ptr %8, align 8
  %21 = call noundef i64 @_Z4MIN2ImET_S0_S0_(i64 noundef %19, i64 noundef %20)
  store i64 %21, ptr %12, align 8
  %22 = load i64, ptr %12, align 8
  %23 = load i64, ptr %7, align 8
  %24 = icmp uge i64 %22, %23
  br i1 %24, label %25, label %33

25:                                               ; preds = %4
  %26 = load ptr, ptr %10, align 8
  %27 = load i64, ptr %12, align 8
  %28 = getelementptr inbounds ptr, ptr %26, i64 %27
  store ptr %28, ptr %13, align 8
  %29 = load ptr, ptr %13, align 8
  call void @_ZN12G1HeapRegion7set_topEPP12HeapWordImpl(ptr noundef nonnull align 8 dereferenceable(136) %14, ptr noundef %29)
  %30 = load i64, ptr %12, align 8
  %31 = load ptr, ptr %9, align 8
  store i64 %30, ptr %31, align 8
  %32 = load ptr, ptr %10, align 8
  store ptr %32, ptr %5, align 8
  br label %34

33:                                               ; preds = %4
  store ptr null, ptr %5, align 8
  br label %34

34:                                               ; preds = %33, %25
  %35 = load ptr, ptr %5, align 8
  ret ptr %35
}

; Function Attrs: mustprogress nounwind uwtable
define hidden void @_ZN13G1AllocRegion19update_alloc_regionEP12G1HeapRegion(ptr noundef nonnull align 8 dereferenceable(36) %0, ptr noundef %1) #1 align 2 {
  %3 = alloca ptr, align 8
  %4 = alloca ptr, align 8
  store ptr %0, ptr %3, align 8
  store ptr %1, ptr %4, align 8
  %5 = load ptr, ptr %3, align 8
  call void @_ZN13G1AllocRegion5traceEPKcmmmPP12HeapWordImpl(ptr noundef nonnull align 8 dereferenceable(36) %5, ptr noundef @.str.12, i64 noundef 0, i64 noundef 0, i64 noundef 0, ptr noundef null)
  br label %6

6:                                                ; preds = %2
  br label %7

7:                                                ; preds = %6
  %8 = load ptr, ptr %4, align 8
  %9 = getelementptr inbounds %class.G1AllocRegion, ptr %5, i32 0, i32 1
  store volatile ptr %8, ptr %9, align 8
  %10 = getelementptr inbounds %class.G1AllocRegion, ptr %5, i32 0, i32 2
  %11 = load i32, ptr %10, align 8
  %12 = add i32 %11, 1
  store i32 %12, ptr %10, align 8
  call void @_ZN13G1AllocRegion5traceEPKcmmmPP12HeapWordImpl(ptr noundef nonnull align 8 dereferenceable(36) %5, ptr noundef @.str.13, i64 noundef 0, i64 noundef 0, i64 noundef 0, ptr noundef null)
  ret void
}

; Function Attrs: mustprogress nounwind uwtable
define linkonce_odr hidden void @_ZN11OrderAccess10storestoreEv() #1 comdat align 2 {
  call void @_ZL16compiler_barrierv()
  ret void
}

; Function Attrs: mustprogress nounwind uwtable
define linkonce_odr hidden noundef ptr @_ZN12G1HeapRegion8allocateEm(ptr noundef nonnull align 8 dereferenceable(136) %0, i64 noundef %1) #1 comdat align 2 {
  %3 = alloca ptr, align 8
  %4 = alloca i64, align 8
  %5 = alloca i64, align 8
  store ptr %0, ptr %3, align 8
  store i64 %1, ptr %4, align 8
  %6 = load ptr, ptr %3, align 8
  %7 = load i64, ptr %4, align 8
  %8 = load i64, ptr %4, align 8
  %9 = call noundef ptr @_ZN12G1HeapRegion8allocateEmmPm(ptr noundef nonnull align 8 dereferenceable(136) %6, i64 noundef %7, i64 noundef %8, ptr noundef %5)
  ret ptr %9
}

; Function Attrs: mustprogress nounwind uwtable
define linkonce_odr hidden void @_ZN12G1HeapRegion19reset_pre_dummy_topEv(ptr noundef nonnull align 8 dereferenceable(136) %0) #1 comdat align 2 {
  %2 = alloca ptr, align 8
  store ptr %0, ptr %2, align 8
  %3 = load ptr, ptr %2, align 8
  %4 = getelementptr inbounds %class.G1HeapRegion, ptr %3, i32 0, i32 4
  store ptr null, ptr %4, align 8
  ret void
}

; Function Attrs: mustprogress nounwind uwtable
define linkonce_odr hidden void @_ZN13G1AllocRegion5traceEPKcmmmPP12HeapWordImpl(ptr noundef nonnull align 8 dereferenceable(36) %0, ptr noundef %1, i64 noundef %2, i64 noundef %3, i64 noundef %4, ptr noundef %5) #1 comdat align 2 {
  %7 = alloca ptr, align 8
  %8 = alloca ptr, align 8
  %9 = alloca i64, align 8
  %10 = alloca i64, align 8
  %11 = alloca i64, align 8
  %12 = alloca ptr, align 8
  store ptr %0, ptr %7, align 8
  store ptr %1, ptr %8, align 8
  store i64 %2, ptr %9, align 8
  store i64 %3, ptr %10, align 8
  store i64 %4, ptr %11, align 8
  store ptr %5, ptr %12, align 8
  ret void
}

; Function Attrs: mustprogress nounwind uwtable
define hidden noundef ptr @_ZN13G1AllocRegion29new_alloc_region_and_allocateEm(ptr noundef nonnull align 8 dereferenceable(36) %0, i64 noundef %1) #1 align 2 {
  %3 = alloca ptr, align 8
  %4 = alloca ptr, align 8
  %5 = alloca i64, align 8
  %6 = alloca ptr, align 8
  %7 = alloca ptr, align 8
  store ptr %0, ptr %4, align 8
  store i64 %1, ptr %5, align 8
  %8 = load ptr, ptr %4, align 8
  br label %9

9:                                                ; preds = %2
  br label %10

10:                                               ; preds = %9
  call void @_ZN13G1AllocRegion5traceEPKcmmmPP12HeapWordImpl(ptr noundef nonnull align 8 dereferenceable(36) %8, ptr noundef @.str.5, i64 noundef 0, i64 noundef 0, i64 noundef 0, ptr noundef null)
  %11 = load i64, ptr %5, align 8
  %12 = load ptr, ptr %8, align 8
  %13 = getelementptr inbounds ptr, ptr %12, i64 1
  %14 = load ptr, ptr %13, align 8
  %15 = call noundef ptr %14(ptr noundef nonnull align 8 dereferenceable(36) %8, i64 noundef %11)
  store ptr %15, ptr %6, align 8
  %16 = load ptr, ptr %6, align 8
  %17 = icmp ne ptr %16, null
  br i1 %17, label %18, label %27

18:                                               ; preds = %10
  %19 = load ptr, ptr %6, align 8
  call void @_ZN12G1HeapRegion19reset_pre_dummy_topEv(ptr noundef nonnull align 8 dereferenceable(136) %19)
  %20 = load ptr, ptr %6, align 8
  %21 = load i64, ptr %5, align 8
  %22 = call noundef ptr @_ZN12G1HeapRegion8allocateEm(ptr noundef nonnull align 8 dereferenceable(136) %20, i64 noundef %21)
  store ptr %22, ptr %7, align 8
  br label %23

23:                                               ; preds = %18
  br label %24

24:                                               ; preds = %23
  call void @_ZN11OrderAccess10storestoreEv()
  %25 = load ptr, ptr %6, align 8
  call void @_ZN13G1AllocRegion19update_alloc_regionEP12G1HeapRegion(ptr noundef nonnull align 8 dereferenceable(36) %8, ptr noundef %25)
  call void @_ZN13G1AllocRegion5traceEPKcmmmPP12HeapWordImpl(ptr noundef nonnull align 8 dereferenceable(36) %8, ptr noundef @.str.6, i64 noundef 0, i64 noundef 0, i64 noundef 0, ptr noundef null)
  %26 = load ptr, ptr %7, align 8
  store ptr %26, ptr %3, align 8
  br label %28

27:                                               ; preds = %10
  call void @_ZN13G1AllocRegion5traceEPKcmmmPP12HeapWordImpl(ptr noundef nonnull align 8 dereferenceable(36) %8, ptr noundef @.str.7, i64 noundef 0, i64 noundef 0, i64 noundef 0, ptr noundef null)
  store ptr null, ptr %3, align 8
  br label %28

28:                                               ; preds = %27, %24
  %29 = load ptr, ptr %3, align 8
  ret ptr %29
}