; Function Attrs: mustprogress nounwind uwtable
define hidden noundef ptr @_ZN13G1AllocRegion29new_alloc_region_and_allocateEm(ptr noundef nonnull align 8 dereferenceable(36) %0, i64 noundef %1) local_unnamed_addr #1 align 2 {
  %3 = load ptr, ptr %0, align 8
  %4 = getelementptr inbounds i8, ptr %3, i64 8
  %5 = load ptr, ptr %4, align 8
  %6 = tail call noundef ptr %5(ptr noundef nonnull align 8 dereferenceable(36) %0, i64 noundef %1) #12
  %.not = icmp eq ptr %6, null
  br i1 %.not, label %23, label %7

7:                                                ; preds = %2
  %8 = getelementptr inbounds i8, ptr %6, i64 32
  store ptr null, ptr %8, align 8
  %9 = getelementptr inbounds i8, ptr %6, i64 16
  %10 = load volatile ptr, ptr %9, align 8
  %11 = getelementptr inbounds i8, ptr %6, i64 8
  %12 = load ptr, ptr %11, align 8
  %13 = ptrtoint ptr %12 to i64
  %14 = ptrtoint ptr %10 to i64
  %15 = sub i64 %13, %14
  %16 = lshr i64 %15, 3
  %.not.i.i = icmp ult i64 %16, %1
  br i1 %.not.i.i, label %_ZN12G1HeapRegion8allocateEm.exit, label %17

17:                                               ; preds = %7
  %18 = getelementptr inbounds ptr, ptr %10, i64 %1
  store volatile ptr %18, ptr %9, align 8
  br label %_ZN12G1HeapRegion8allocateEm.exit

_ZN12G1HeapRegion8allocateEm.exit:                ; preds = %7, %17
  %.0.i.i = phi ptr [ %10, %17 ], [ null, %7 ]
  tail call void asm sideeffect "", "~{memory},~{dirflag},~{fpsr},~{flags}"() #12, !srcloc !10
  %19 = getelementptr inbounds i8, ptr %0, i64 8
  store volatile ptr %6, ptr %19, align 8
  %20 = getelementptr inbounds i8, ptr %0, i64 16
  %21 = load i32, ptr %20, align 8
  %22 = add i32 %21, 1
  store i32 %22, ptr %20, align 8
  br label %23

23:                                               ; preds = %2, %_ZN12G1HeapRegion8allocateEm.exit
  %.0 = phi ptr [ %.0.i.i, %_ZN12G1HeapRegion8allocateEm.exit ], [ null, %2 ]
  ret ptr %.0
}